; Function Attrs: mustprogress uwtable
define void @_ZN32pxrInternal_v0_24__pxrReserved__36PcpExpressionVariableCachingComposerC2ERKNS_23PcpLayerStackIdentifierE(ptr noundef nonnull align 8 dereferenceable(136) %0, ptr noundef nonnull align 8 dereferenceable(80) %1) unnamed_addr #0 align 2 {
  tail call void @_ZN32pxrInternal_v0_24__pxrReserved__23PcpLayerStackIdentifierC2ERKS0_(ptr noundef nonnull align 8 dereferenceable(80) %0, ptr noundef nonnull align 8 dereferenceable(80) %1)
  %3 = getelementptr inbounds nuw i8, ptr %0, i64 80
  %4 = getelementptr inbounds i8, ptr %0, i64 128
  store ptr %4, ptr %3, align 8
  %5 = getelementptr inbounds i8, ptr %0, i64 88
  store i64 1, ptr %5, align 8
  %6 = getelementptr inbounds i8, ptr %0, i64 96
  %7 = getelementptr inbounds i8, ptr %0, i64 112
  tail call void @llvm.memset.p0.i64(ptr noundef nonnull align 8 dereferenceable(16) %6, i8 0, i64 16, i1 false)
  store float 1.000000e+00, ptr %7, align 8
  %8 = getelementptr inbounds i8, ptr %0, i64 120
  tail call void @llvm.memset.p0.i64(ptr noundef nonnull align 8 dereferenceable(16) %8, i8 0, i64 16, i1 false)
  ret void
}